; Function Attrs: nounwind uwtable
define dso_local void @Curl_hostcache_clean(ptr noundef %0, ptr noundef %1) local_unnamed_addr #0 {
  %.not = icmp eq ptr %0, null
  br i1 %.not, label %.critedge, label %3

3:                                                ; preds = %2
  %4 = getelementptr inbounds nuw i8, ptr %0, i64 208
  %5 = load ptr, ptr %4, align 8
  %.not7 = icmp eq ptr %5, null
  br i1 %.not7, label %8, label %6

6:                                                ; preds = %3
  %7 = tail call i32 @Curl_share_lock(ptr noundef nonnull %0, i32 noundef 3, i32 noundef 2) #12
  br label %8

8:                                                ; preds = %3, %6
  tail call void @Curl_hash_clean(ptr noundef %1) #12
  %9 = load ptr, ptr %4, align 8
  %.not8 = icmp eq ptr %9, null
  br i1 %.not8, label %12, label %10

10:                                               ; preds = %8
  %11 = tail call i32 @Curl_share_unlock(ptr noundef nonnull %0, i32 noundef 3) #12
  br label %12

.critedge:                                        ; preds = %2
  tail call void @Curl_hash_clean(ptr noundef %1) #12
  br label %12

12:                                               ; preds = %.critedge, %10, %8
  ret void
}